target datalayout = "e-m:e-p270:32:32-p271:32:32-p272:64:64-i64:64-i128:128-f80:128-n8:16:32:64-S128"
target triple = "x86_64-pc-linux-gnu"

%struct._object = type { %union.anon, ptr }
%union.anon = type { i64 }

@_Py_NoneStruct = external global %struct._object, align 8
@destroy_interpreter.kwlist = internal global [2 x ptr] [ptr @.str.243, ptr null], align 16
@.str.244 = private unnamed_addr constant [22 x i8] c"O:destroy_interpreter\00", align 1

; Function Attrs: nounwind uwtable
define internal ptr @destroy_interpreter(ptr noundef %0, ptr noundef %1, ptr noundef %2) #0 {
  %4 = alloca ptr, align 8
  %5 = alloca ptr, align 8
  %6 = alloca ptr, align 8
  %7 = alloca ptr, align 8
  %8 = alloca ptr, align 8
  %9 = alloca i32, align 4
  %10 = alloca ptr, align 8
  store ptr %0, ptr %5, align 8, !tbaa !3
  store ptr %1, ptr %6, align 8, !tbaa !3
  store ptr %2, ptr %7, align 8, !tbaa !3
  call void @llvm.lifetime.start.p0(i64 8, ptr %8) #10
  store ptr null, ptr %8, align 8, !tbaa !3
  %11 = load ptr, ptr %6, align 8, !tbaa !3
  %12 = load ptr, ptr %7, align 8, !tbaa !3
  %13 = call i32 (ptr, ptr, ptr, ptr, ...) @PyArg_ParseTupleAndKeywords(ptr noundef %11, ptr noundef %12, ptr noundef @.str.244, ptr noundef @destroy_interpreter.kwlist, ptr noundef %8)
  %14 = icmp ne i32 %13, 0
  br i1 %14, label %16, label %15

15:                                               ; preds = %3
  store ptr null, ptr %4, align 8
  store i32 1, ptr %9, align 4
  br label %25

16:                                               ; preds = %3
  call void @llvm.lifetime.start.p0(i64 8, ptr %10) #10
  %17 = load ptr, ptr %8, align 8, !tbaa !3
  %18 = call ptr @_PyInterpreterState_LookUpIDObject(ptr noundef %17)
  store ptr %18, ptr %10, align 8, !tbaa !49
  %19 = load ptr, ptr %10, align 8, !tbaa !49
  %20 = icmp eq ptr %19, null
  br i1 %20, label %21, label %22

21:                                               ; preds = %16
  store ptr null, ptr %4, align 8
  store i32 1, ptr %9, align 4
  br label %24

22:                                               ; preds = %16
  %23 = load ptr, ptr %10, align 8, !tbaa !49
  call void @_PyXI_EndInterpreter(ptr noundef %23, ptr noundef null, ptr noundef null)
  store ptr @_Py_NoneStruct, ptr %4, align 8
  store i32 1, ptr %9, align 4
  br label %24

24:                                               ; preds = %22, %21
  call void @llvm.lifetime.end.p0(i64 8, ptr %10) #10
  br label %25

25:                                               ; preds = %24, %15
  call void @llvm.lifetime.end.p0(i64 8, ptr %8) #10
  %26 = load ptr, ptr %4, align 8
  ret ptr %26
}