; Function Attrs: nounwind uwtable
define internal noundef ptr @destroy_interpreter(ptr readnone captures(none) %0, ptr noundef %1, ptr noundef %2) #0 {
  %4 = alloca ptr, align 8
  call void @llvm.lifetime.start.p0(i64 8, ptr nonnull %4) #11
  store ptr null, ptr %4, align 8, !tbaa !9
  %5 = call i32 (ptr, ptr, ptr, ptr, ...) @PyArg_ParseTupleAndKeywords(ptr noundef %1, ptr noundef %2, ptr noundef nonnull @.str.244, ptr noundef nonnull @destroy_interpreter.kwlist, ptr noundef nonnull %4) #11
  %.not = icmp eq i32 %5, 0
  br i1 %.not, label %11, label %6

6:                                                ; preds = %3
  %7 = load ptr, ptr %4, align 8, !tbaa !9
  %8 = call ptr @_PyInterpreterState_LookUpIDObject(ptr noundef %7) #11
  %9 = icmp eq ptr %8, null
  br i1 %9, label %11, label %10

10:                                               ; preds = %6
  call void @_PyXI_EndInterpreter(ptr noundef nonnull %8, ptr noundef null, ptr noundef null) #11
  br label %11

11:                                               ; preds = %10, %6, %3
  %.0 = phi ptr [ null, %3 ], [ @_Py_NoneStruct, %10 ], [ null, %6 ]
  call void @llvm.lifetime.end.p0(i64 8, ptr nonnull %4) #11
  ret ptr %.0
}